; Function Attrs: mustprogress null_pointer_is_valid sspstrong uwtable
define void @_ZN14DragDropTabBar15mousePressEventEP11QMouseEvent(ptr noundef align 8 dereferenceable_or_null(65) initializes((48, 56), (64, 65)) %0, ptr noundef %1) unnamed_addr #0 align 2 personality ptr @__gxx_personality_v0 {
  %3 = getelementptr inbounds nuw i8, ptr %1, i64 64
  %4 = load i32, ptr %3, align 8
  %5 = icmp eq i32 %4, 1
  br i1 %5, label %6, label %19

6:                                                ; preds = %2
  %7 = getelementptr inbounds nuw i8, ptr %1, i64 48
  %8 = load ptr, ptr %7, align 8
  %9 = tail call { double, double } @_ZNK11QEventPoint8positionEv(ptr noundef align 8 dereferenceable_or_null(8) %8)
  %10 = extractvalue { double, double } %9, 0
  %11 = extractvalue { double, double } %9, 1
  %12 = tail call double @llvm.copysign.f64(double 5.000000e-01, double %10)
  %13 = fadd double %10, %12
  %14 = fptosi double %13 to i32
  %15 = tail call double @llvm.copysign.f64(double 5.000000e-01, double %11)
  %16 = fadd double %11, %15
  %17 = fptosi double %16 to i32
  %.sroa.2.0.insert.ext.i.i = zext i32 %17 to i64
  %.sroa.2.0.insert.shift.i.i = shl nuw i64 %.sroa.2.0.insert.ext.i.i, 32
  %.sroa.0.0.insert.ext.i.i = zext i32 %14 to i64
  %.sroa.0.0.insert.insert.i.i = or disjoint i64 %.sroa.2.0.insert.shift.i.i, %.sroa.0.0.insert.ext.i.i
  %18 = getelementptr inbounds nuw i8, ptr %0, i64 40
  store i64 %.sroa.0.0.insert.insert.i.i, ptr %18, align 8
  br label %19

19:                                               ; preds = %6, %2
  %20 = getelementptr inbounds nuw i8, ptr %0, i64 48
  store i64 0, ptr %20, align 8
  %21 = getelementptr inbounds nuw i8, ptr %0, i64 64
  store i8 0, ptr %21, align 8
  tail call void @_ZN7QTabBar15mousePressEventEP11QMouseEvent(ptr noundef align 8 dereferenceable_or_null(40) %0, ptr noundef %1)
  ret void
}